target datalayout = "e-m:e-p270:32:32-p271:32:32-p272:64:64-i64:64-i128:128-f80:128-n8:16:32:64-S128"
target triple = "x86_64-pc-linux-gnu"

%struct.SpecifierOptList = type { ptr, i32, ptr, i32 }
%struct.OptionGroup = type { ptr, ptr, ptr, i32, ptr, ptr, ptr, ptr }
%struct.OptionsContext = type { ptr, i64, i64, i32, ptr, %struct.SpecifierOptList, %struct.SpecifierOptList, %struct.SpecifierOptList, %struct.SpecifierOptList, %struct.SpecifierOptList, %struct.SpecifierOptList, %struct.SpecifierOptList, %struct.SpecifierOptList, i64, i32, i32, float, float, double, i32, i32, i32, i32, %struct.SpecifierOptList, %struct.SpecifierOptList, %struct.SpecifierOptList, %struct.SpecifierOptList, %struct.SpecifierOptList, %struct.SpecifierOptList, %struct.SpecifierOptList, ptr, i32, ptr, i32, i32, i64, i64, i64, float, float, float, i32, i32, i32, i32, i32, i32, ptr, %struct.SpecifierOptList, %struct.SpecifierOptList, %struct.SpecifierOptList, %struct.SpecifierOptList, %struct.SpecifierOptList, %struct.SpecifierOptList, %struct.SpecifierOptList, %struct.SpecifierOptList, %struct.SpecifierOptList, %struct.SpecifierOptList, %struct.SpecifierOptList, %struct.SpecifierOptList, %struct.SpecifierOptList, %struct.SpecifierOptList, %struct.SpecifierOptList, %struct.SpecifierOptList, %struct.SpecifierOptList, %struct.SpecifierOptList, %struct.SpecifierOptList, %struct.SpecifierOptList, %struct.SpecifierOptList, %struct.SpecifierOptList, %struct.SpecifierOptList, %struct.SpecifierOptList, %struct.SpecifierOptList, %struct.SpecifierOptList, %struct.SpecifierOptList, %struct.SpecifierOptList, %struct.SpecifierOptList, %struct.SpecifierOptList, %struct.SpecifierOptList, %struct.SpecifierOptList, %struct.SpecifierOptList, %struct.SpecifierOptList, %struct.SpecifierOptList, %struct.SpecifierOptList, %struct.SpecifierOptList, %struct.SpecifierOptList, %struct.SpecifierOptList, %struct.SpecifierOptList, %struct.SpecifierOptList, %struct.SpecifierOptList, %struct.SpecifierOptList, %struct.SpecifierOptList, %struct.SpecifierOptList, %struct.SpecifierOptList, %struct.SpecifierOptList, %struct.SpecifierOptList, %struct.SpecifierOptList }

@.str.269 = private unnamed_addr constant [8 x i8] c"profile\00", align 1
@.str.608 = private unnamed_addr constant [60 x i8] c"Please use -profile:a or -profile:v, -profile is ambiguous\0A\00", align 1
@.str.609 = private unnamed_addr constant [10 x i8] c"profile:v\00", align 1

; Function Attrs: nounwind uwtable
define internal i32 @opt_profile(ptr noundef %0, ptr noundef %1, ptr noundef %2) #0 {
  %4 = alloca i32, align 4
  %5 = alloca ptr, align 8
  %6 = alloca ptr, align 8
  %7 = alloca ptr, align 8
  %8 = alloca ptr, align 8
  %9 = alloca i32, align 4
  store ptr %0, ptr %5, align 8, !tbaa !26
  store ptr %1, ptr %6, align 8, !tbaa !23
  store ptr %2, ptr %7, align 8, !tbaa !23
  call void @llvm.lifetime.start.p0(i64 8, ptr %8) #12
  %10 = load ptr, ptr %5, align 8, !tbaa !26
  store ptr %10, ptr %8, align 8, !tbaa !151
  %11 = load ptr, ptr %6, align 8, !tbaa !23
  %12 = call i32 @strcmp(ptr noundef %11, ptr noundef @.str.269) #13
  %13 = icmp ne i32 %12, 0
  br i1 %13, label %21, label %14

14:                                               ; preds = %3
  call void (ptr, i32, ptr, ...) @av_log(ptr noundef null, i32 noundef 24, ptr noundef @.str.608)
  %15 = load ptr, ptr %8, align 8, !tbaa !151
  %16 = getelementptr inbounds nuw %struct.OptionsContext, ptr %15, i32 0, i32 0
  %17 = load ptr, ptr %16, align 8, !tbaa !125
  %18 = getelementptr inbounds nuw %struct.OptionGroup, ptr %17, i32 0, i32 4
  %19 = load ptr, ptr %7, align 8, !tbaa !23
  %20 = call i32 @av_dict_set(ptr noundef %18, ptr noundef @.str.609, ptr noundef %19, i32 noundef 0)
  store i32 0, ptr %4, align 4
  store i32 1, ptr %9, align 4
  br label %29

21:                                               ; preds = %3
  %22 = load ptr, ptr %8, align 8, !tbaa !151
  %23 = getelementptr inbounds nuw %struct.OptionsContext, ptr %22, i32 0, i32 0
  %24 = load ptr, ptr %23, align 8, !tbaa !125
  %25 = getelementptr inbounds nuw %struct.OptionGroup, ptr %24, i32 0, i32 4
  %26 = load ptr, ptr %6, align 8, !tbaa !23
  %27 = load ptr, ptr %7, align 8, !tbaa !23
  %28 = call i32 @av_dict_set(ptr noundef %25, ptr noundef %26, ptr noundef %27, i32 noundef 0)
  store i32 0, ptr %4, align 4
  store i32 1, ptr %9, align 4
  br label %29

29:                                               ; preds = %21, %14
  call void @llvm.lifetime.end.p0(i64 8, ptr %8) #12
  %30 = load i32, ptr %4, align 4
  ret i32 %30
}