; Function Attrs: nounwind uwtable
define internal noundef i32 @opt_profile(ptr noundef readonly captures(none) %0, ptr noundef %1, ptr noundef %2) #0 {
  %4 = tail call i32 @strcmp(ptr noundef nonnull dereferenceable(1) %1, ptr noundef nonnull dereferenceable(8) @.str.269) #17
  %.not = icmp eq i32 %4, 0
  br i1 %.not, label %5, label %6

5:                                                ; preds = %3
  tail call void (ptr, i32, ptr, ...) @av_log(ptr noundef null, i32 noundef 24, ptr noundef nonnull @.str.608) #15
  br label %6

6:                                                ; preds = %3, %5
  %.sink7 = phi ptr [ @.str.609, %5 ], [ %1, %3 ]
  %7 = load ptr, ptr %0, align 8, !tbaa !114
  %8 = getelementptr inbounds nuw i8, ptr %7, i64 32
  %9 = tail call i32 @av_dict_set(ptr noundef nonnull %8, ptr noundef nonnull %.sink7, ptr noundef %2, i32 noundef 0) #15
  ret i32 0
}